; ModuleID = 'source-C-CXX/23/334.c'
source_filename = "source-C-CXX/23/334.c"
target datalayout = "e-m:e-p270:32:32-p271:32:32-p272:64:64-i64:64-f80:128-n8:16:32:64-S128"
target triple = "x86_64-pc-linux-gnu"

%struct._IO_FILE = type { i32, i8*, i8*, i8*, i8*, i8*, i8*, i8*, i8*, i8*, i8*, i8*, %struct._IO_marker*, %struct._IO_FILE*, i32, i32, i64, i16, i8, [1 x i8], i8*, i64, %struct._IO_codecvt*, %struct._IO_wide_data*, %struct._IO_FILE*, i8*, i64, i32, [20 x i8] }
%struct._IO_marker = type opaque
%struct._IO_codecvt = type opaque
%struct._IO_wide_data = type opaque

@.str = private unnamed_addr constant [3 x i8] c"%s\00", align 1
@.str.1 = private unnamed_addr constant [6 x i8] c"%s\0A%s\00", align 1
@stdin = external local_unnamed_addr global %struct._IO_FILE*, align 8

; Function Attrs: nofree nounwind sspstrong uwtable
define dso_local void @main() local_unnamed_addr #0 {
  %1 = alloca [50 x [20 x i8]], align 16
  %2 = getelementptr inbounds [50 x [20 x i8]], [50 x [20 x i8]]* %1, i64 0, i64 0, i64 0
  call void @llvm.lifetime.start.p0i8(i64 1000, i8* nonnull %2) #4
  br label %3

3:                                                ; preds = %0, %3
  %4 = phi i64 [ 0, %0 ], [ %9, %3 ]
  %5 = getelementptr inbounds [50 x [20 x i8]], [50 x [20 x i8]]* %1, i64 0, i64 %4, i64 0
  %6 = call i32 (i8*, ...) @__isoc99_scanf(i8* getelementptr inbounds ([3 x i8], [3 x i8]* @.str, i64 0, i64 0), i8* nonnull %5)
  %7 = load %struct._IO_FILE*, %struct._IO_FILE** @stdin, align 8, !tbaa !5
  %8 = call i32 @getc(%struct._IO_FILE* %7) #4
  %9 = add nuw i64 %4, 1
  %10 = and i32 %8, 255
  %11 = icmp eq i32 %10, 10
  br i1 %11, label %12, label %3, !llvm.loop !9

12:                                               ; preds = %3
  %13 = getelementptr inbounds [50 x [20 x i8]], [50 x [20 x i8]]* %1, i64 0, i64 1, i64 0
  %14 = call i64 @strlen(i8* noundef nonnull %13) #5
  %15 = trunc i64 %14 to i32
  %16 = add i64 %4, 1
  %17 = and i64 %16, 4294967295
  br label %18

18:                                               ; preds = %12, %18
  %19 = phi i64 [ 0, %12 ], [ %34, %18 ]
  %20 = phi i32 [ %15, %12 ], [ %33, %18 ]
  %21 = phi i32 [ 0, %12 ], [ %30, %18 ]
  %22 = phi i32 [ undef, %12 ], [ %32, %18 ]
  %23 = phi i32 [ undef, %12 ], [ %29, %18 ]
  %24 = getelementptr inbounds [50 x [20 x i8]], [50 x [20 x i8]]* %1, i64 0, i64 %19, i64 0
  %25 = call i64 @strlen(i8* noundef nonnull %24) #5
  %26 = trunc i64 %25 to i32
  %27 = icmp slt i32 %21, %26
  %28 = trunc i64 %19 to i32
  %29 = select i1 %27, i32 %28, i32 %23
  %30 = select i1 %27, i32 %26, i32 %21
  %31 = icmp sgt i32 %20, %26
  %32 = select i1 %31, i32 %28, i32 %22
  %33 = select i1 %31, i32 %26, i32 %20
  %34 = add nuw nsw i64 %19, 1
  %35 = icmp eq i64 %34, %17
  br i1 %35, label %36, label %18, !llvm.loop !11

36:                                               ; preds = %18
  %37 = sext i32 %29 to i64
  %38 = getelementptr inbounds [50 x [20 x i8]], [50 x [20 x i8]]* %1, i64 0, i64 %37, i64 0
  %39 = sext i32 %32 to i64
  %40 = getelementptr inbounds [50 x [20 x i8]], [50 x [20 x i8]]* %1, i64 0, i64 %39, i64 0
  %41 = call i32 (i8*, ...) @printf(i8* nonnull dereferenceable(1) getelementptr inbounds ([6 x i8], [6 x i8]* @.str.1, i64 0, i64 0), i8* nonnull %38, i8* nonnull %40)
  call void @llvm.lifetime.end.p0i8(i64 1000, i8* nonnull %2) #4
  ret void
}

; Function Attrs: argmemonly mustprogress nofree nosync nounwind willreturn
declare void @llvm.lifetime.start.p0i8(i64 immarg, i8* nocapture) #1

; Function Attrs: nofree nounwind
declare noundef i32 @__isoc99_scanf(i8* nocapture noundef readonly, ...) local_unnamed_addr #2

; Function Attrs: argmemonly mustprogress nofree nounwind readonly willreturn
declare i64 @strlen(i8* nocapture) local_unnamed_addr #3

; Function Attrs: nofree nounwind
declare noundef i32 @printf(i8* nocapture noundef readonly, ...) local_unnamed_addr #2

; Function Attrs: argmemonly mustprogress nofree nosync nounwind willreturn
declare void @llvm.lifetime.end.p0i8(i64 immarg, i8* nocapture) #1

; Function Attrs: nofree nounwind
declare noundef i32 @getc(%struct._IO_FILE* nocapture noundef) local_unnamed_addr #2


!llvm.module.flags = !{!0, !1, !2, !3}
!llvm.ident = !{!4}

!0 = !{i32 1, !"wchar_size", i32 4}
!1 = !{i32 7, !"PIC Level", i32 2}
!2 = !{i32 7, !"PIE Level", i32 2}
!3 = !{i32 7, !"uwtable", i32 1}
!4 = !{!"clang version 13.0.0"}
!5 = !{!6, !6, i64 0}
!6 = !{!"any pointer", !7, i64 0}
!7 = !{!"omnipotent char", !8, i64 0}
!8 = !{!"Simple C/C++ TBAA"}
!9 = distinct !{!9, !10}
!10 = !{!"llvm.loop.mustprogress"}
!11 = distinct !{!11, !10}
